target datalayout = "e-m:e-p270:32:32-p271:32:32-p272:64:64-i64:64-i128:128-f80:128-n8:16:32:64-S128"
target triple = "x86_64-pc-linux-gnu"

%struct.expert_field = type { i32, i32 }

@hf_ansi_637_tele_deferred_del_ts_year = internal global i32 0, align 4
@hf_ansi_637_tele_deferred_del_ts_month = internal global i32 0, align 4
@hf_ansi_637_tele_deferred_del_ts_day = internal global i32 0, align 4
@hf_ansi_637_tele_deferred_del_ts_hours = internal global i32 0, align 4
@hf_ansi_637_tele_deferred_del_ts_minutes = internal global i32 0, align 4
@hf_ansi_637_tele_deferred_del_ts_seconds = internal global i32 0, align 4
@ei_ansi_637_unexpected_length = internal global %struct.expert_field zeroinitializer, align 4

; Function Attrs: null_pointer_is_valid sspstrong uwtable
define internal void @tele_param_deferred_del_abs(ptr noundef %0, ptr noundef %1, ptr noundef %2, i32 noundef %3, i32 noundef %4, ptr noundef %5) #0 {
  %7 = alloca ptr, align 8
  %8 = alloca ptr, align 8
  %9 = alloca ptr, align 8
  %10 = alloca i32, align 4
  %11 = alloca i32, align 4
  %12 = alloca ptr, align 8
  store ptr %0, ptr %7, align 8
  store ptr %1, ptr %8, align 8
  store ptr %2, ptr %9, align 8
  store i32 %3, ptr %10, align 4
  store i32 %4, ptr %11, align 4
  store ptr %5, ptr %12, align 8
  %13 = load i32, ptr %10, align 4
  %14 = icmp ne i32 %13, 6
  br i1 %14, label %15, label %22

15:                                               ; preds = %6
  %16 = load ptr, ptr %9, align 8
  %17 = load ptr, ptr %8, align 8
  %18 = load ptr, ptr %7, align 8
  %19 = load i32, ptr %11, align 4
  %20 = load i32, ptr %10, align 4
  %21 = call ptr @proto_tree_add_expert(ptr noundef %16, ptr noundef %17, ptr noundef @ei_ansi_637_unexpected_length, ptr noundef %18, i32 noundef %19, i32 noundef %20)
  br label %34

22:                                               ; preds = %6
  %23 = load ptr, ptr %7, align 8
  %24 = load ptr, ptr %8, align 8
  %25 = load ptr, ptr %9, align 8
  %26 = load i32, ptr %10, align 4
  %27 = load i32, ptr %11, align 4
  %28 = load i32, ptr @hf_ansi_637_tele_deferred_del_ts_year, align 4
  %29 = load i32, ptr @hf_ansi_637_tele_deferred_del_ts_month, align 4
  %30 = load i32, ptr @hf_ansi_637_tele_deferred_del_ts_day, align 4
  %31 = load i32, ptr @hf_ansi_637_tele_deferred_del_ts_hours, align 4
  %32 = load i32, ptr @hf_ansi_637_tele_deferred_del_ts_minutes, align 4
  %33 = load i32, ptr @hf_ansi_637_tele_deferred_del_ts_seconds, align 4
  call void @tele_param_timestamp(ptr noundef %23, ptr noundef %24, ptr noundef %25, i32 noundef %26, i32 noundef %27, i32 noundef %28, i32 noundef %29, i32 noundef %30, i32 noundef %31, i32 noundef %32, i32 noundef %33)
  br label %34

34:                                               ; preds = %22, %15
  ret void
}