; Function Attrs: null_pointer_is_valid sspstrong uwtable
define internal void @tele_param_deferred_del_abs(ptr noundef %0, ptr noundef %1, ptr noundef %2, i32 noundef %3, i32 noundef %4, ptr readnone captures(none) %5) #0 {
  %.not = icmp eq i32 %3, 6
  br i1 %.not, label %9, label %7

7:                                                ; preds = %6
  %8 = tail call ptr @proto_tree_add_expert(ptr noundef %2, ptr noundef %1, ptr noundef nonnull @ei_ansi_637_unexpected_length, ptr noundef %0, i32 noundef %4, i32 noundef %3)
  br label %16

9:                                                ; preds = %6
  %10 = load i32, ptr @hf_ansi_637_tele_deferred_del_ts_year, align 4
  %11 = load i32, ptr @hf_ansi_637_tele_deferred_del_ts_month, align 4
  %12 = load i32, ptr @hf_ansi_637_tele_deferred_del_ts_day, align 4
  %13 = load i32, ptr @hf_ansi_637_tele_deferred_del_ts_hours, align 4
  %14 = load i32, ptr @hf_ansi_637_tele_deferred_del_ts_minutes, align 4
  %15 = load i32, ptr @hf_ansi_637_tele_deferred_del_ts_seconds, align 4
  tail call fastcc void @tele_param_timestamp(ptr noundef %0, ptr noundef %2, i32 noundef %4, i32 noundef %10, i32 noundef %11, i32 noundef %12, i32 noundef %13, i32 noundef %14, i32 noundef %15)
  br label %16

16:                                               ; preds = %9, %7
  ret void
}